target datalayout = "e-m:e-p270:32:32-p271:32:32-p272:64:64-i64:64-i128:128-f80:128-n8:16:32:64-S128"
target triple = "x86_64-pc-linux-gnu"

%"class.icu_77::MaybeStackArray" = type <{ ptr, i32, i8, [40 x i8], [3 x i8] }>
%"class.icu_77::CharString" = type { %"class.icu_77::MaybeStackArray", i32, [4 x i8] }
%"class.icu_77::MeasureUnitImpl" = type { i32, %"class.icu_77::MaybeStackVector", %"class.icu_77::CharString", i64 }
%"class.icu_77::MaybeStackVector" = type { %"class.icu_77::MemoryPool" }
%"class.icu_77::MemoryPool" = type { i32, %"class.icu_77::MaybeStackArray.0" }
%"class.icu_77::MaybeStackArray.0" = type { ptr, i32, i8, [8 x ptr] }
%"class.icu_77::BytesTrie" = type <{ ptr, ptr, ptr, i32, [4 x i8] }>
%"class.icu_77::StringPiece" = type <{ ptr, i32, [4 x i8] }>
%"class.icu_77::UObject" = type { ptr }
%"class.icu_77::(anonymous namespace)::Parser" = type <{ i32, [4 x i8], %"class.icu_77::StringPiece", %"class.icu_77::BytesTrie", i8, i8, [6 x i8] }>
%"class.icu_77::MeasureUnit" = type <{ %"class.icu_77::UObject", ptr, i16, i8, [5 x i8] }>

; Function Attrs: inlinehint mustprogress nounwind uwtable
define internal void @_ZN6icu_7712_GLOBAL__N_16ParserD2Ev(ptr noundef nonnull align 8 dereferenceable(58) %0) unnamed_addr #2 align 2 {
  %2 = alloca ptr, align 8
  store ptr %0, ptr %2, align 8, !tbaa !98
  %3 = load ptr, ptr %2, align 8
  %4 = getelementptr inbounds nuw %"class.icu_77::(anonymous namespace)::Parser", ptr %3, i32 0, i32 3
  call void @_ZN6icu_779BytesTrieD1Ev(ptr noundef nonnull align 8 dereferenceable(28) %4) #14
  ret void
}

; Function Attrs: mustprogress uwtable
define void @_ZN6icu_7715MeasureUnitImpl23forMeasureUnitMaybeCopyERKNS_11MeasureUnitER10UErrorCode(ptr dead_on_unwind noalias writable sret(%"class.icu_77::MeasureUnitImpl") align 8 %0, ptr noundef nonnull align 8 dereferenceable(19) %1, ptr noundef nonnull align 4 dereferenceable(4) %2) #1 align 2 personality ptr @__gxx_personality_v0 {
  %4 = alloca ptr, align 8
  %5 = alloca ptr, align 8
  %6 = alloca ptr, align 8
  %7 = alloca %"class.icu_77::(anonymous namespace)::Parser", align 8
  %8 = alloca %"class.icu_77::StringPiece", align 8
  %9 = alloca ptr, align 8
  %10 = alloca i32, align 4
  store ptr %0, ptr %4, align 8
  store ptr %1, ptr %5, align 8, !tbaa !84
  store ptr %2, ptr %6, align 8, !tbaa !22
  %11 = load ptr, ptr %5, align 8, !tbaa !84
  %12 = getelementptr inbounds nuw %"class.icu_77::MeasureUnit", ptr %11, i32 0, i32 1
  %13 = load ptr, ptr %12, align 8, !tbaa !87
  %14 = icmp ne ptr %13, null
  br i1 %14, label %15, label %20

15:                                               ; preds = %3
  %16 = load ptr, ptr %5, align 8, !tbaa !84
  %17 = getelementptr inbounds nuw %"class.icu_77::MeasureUnit", ptr %16, i32 0, i32 1
  %18 = load ptr, ptr %17, align 8, !tbaa !87
  %19 = load ptr, ptr %6, align 8, !tbaa !22
  call void @_ZNK6icu_7715MeasureUnitImpl4copyER10UErrorCode(ptr dead_on_unwind writable sret(%"class.icu_77::MeasureUnitImpl") align 8 %0, ptr noundef nonnull align 8 dereferenceable(168) %18, ptr noundef nonnull align 4 dereferenceable(4) %19)
  br label %34

20:                                               ; preds = %3
  call void @llvm.lifetime.start.p0(i64 64, ptr %7) #14
  %21 = load ptr, ptr %5, align 8, !tbaa !84
  %22 = call noundef ptr @_ZNK6icu_7711MeasureUnit13getIdentifierEv(ptr noundef nonnull align 8 dereferenceable(19) %21)
  call void @_ZN6icu_7711StringPieceC1EPKc(ptr noundef nonnull align 8 dereferenceable(12) %8, ptr noundef %22)
  %23 = load ptr, ptr %6, align 8, !tbaa !22
  %24 = getelementptr inbounds nuw { ptr, i32 }, ptr %8, i32 0, i32 0
  %25 = load ptr, ptr %24, align 8
  %26 = getelementptr inbounds nuw { ptr, i32 }, ptr %8, i32 0, i32 1
  %27 = load i32, ptr %26, align 8
  call void @_ZN6icu_7712_GLOBAL__N_16Parser4fromENS_11StringPieceER10UErrorCode(ptr dead_on_unwind writable sret(%"class.icu_77::(anonymous namespace)::Parser") align 8 %7, ptr %25, i32 %27, ptr noundef nonnull align 4 dereferenceable(4) %23)
  %28 = load ptr, ptr %6, align 8, !tbaa !22
  invoke void @_ZN6icu_7712_GLOBAL__N_16Parser5parseER10UErrorCode(ptr dead_on_unwind writable sret(%"class.icu_77::MeasureUnitImpl") align 8 %0, ptr noundef nonnull align 8 dereferenceable(58) %7, ptr noundef nonnull align 4 dereferenceable(4) %28)
          to label %29 unwind label %30

29:                                               ; preds = %20
  call void @_ZN6icu_7712_GLOBAL__N_16ParserD2Ev(ptr noundef nonnull align 8 dereferenceable(58) %7) #14
  call void @llvm.lifetime.end.p0(i64 64, ptr %7) #14
  br label %34

30:                                               ; preds = %20
  %31 = landingpad { ptr, i32 }
          cleanup
  %32 = extractvalue { ptr, i32 } %31, 0
  store ptr %32, ptr %9, align 8
  %33 = extractvalue { ptr, i32 } %31, 1
  store i32 %33, ptr %10, align 4
  call void @_ZN6icu_7712_GLOBAL__N_16ParserD2Ev(ptr noundef nonnull align 8 dereferenceable(58) %7) #14
  call void @llvm.lifetime.end.p0(i64 64, ptr %7) #14
  br label %35

34:                                               ; preds = %29, %15
  ret void

35:                                               ; preds = %30
  %36 = load ptr, ptr %9, align 8
  %37 = load i32, ptr %10, align 4
  %38 = insertvalue { ptr, i32 } poison, ptr %36, 0
  %39 = insertvalue { ptr, i32 } %38, i32 %37, 1
  resume { ptr, i32 } %39
}