; Function Attrs: mustprogress uwtable
define void @_ZN6icu_7715MeasureUnitImpl23forMeasureUnitMaybeCopyERKNS_11MeasureUnitER10UErrorCode(ptr dead_on_unwind noalias writable sret(%"class.icu_77::MeasureUnitImpl") align 8 %0, ptr noundef nonnull align 8 dereferenceable(19) %1, ptr noundef nonnull align 4 dereferenceable(4) %2) local_unnamed_addr #1 align 2 personality ptr @__gxx_personality_v0 {
  %4 = alloca %"class.icu_77::(anonymous namespace)::Parser", align 8
  %5 = alloca %"class.icu_77::StringPiece", align 8
  %6 = getelementptr inbounds nuw i8, ptr %1, i64 8
  %7 = load ptr, ptr %6, align 8, !tbaa !88
  %.not = icmp eq ptr %7, null
  br i1 %.not, label %9, label %8

8:                                                ; preds = %3
  tail call void @_ZNK6icu_7715MeasureUnitImpl4copyER10UErrorCode(ptr dead_on_unwind writable sret(%"class.icu_77::MeasureUnitImpl") align 8 %0, ptr noundef nonnull align 8 dereferenceable(168) %7, ptr noundef nonnull align 4 dereferenceable(4) %2)
  br label %19

9:                                                ; preds = %3
  call void @llvm.lifetime.start.p0(i64 64, ptr nonnull %4) #18
  %10 = tail call noundef ptr @_ZNK6icu_7711MeasureUnit13getIdentifierEv(ptr noundef nonnull align 8 dereferenceable(19) %1)
  call void @_ZN6icu_7711StringPieceC1EPKc(ptr noundef nonnull align 8 dereferenceable(12) %5, ptr noundef %10)
  %11 = load ptr, ptr %5, align 8
  %12 = getelementptr inbounds nuw i8, ptr %5, i64 8
  %13 = load i32, ptr %12, align 8
  call fastcc void @_ZN6icu_7712_GLOBAL__N_16Parser4fromENS_11StringPieceER10UErrorCode(ptr dead_on_unwind noalias writable align 8 %4, ptr %11, i32 %13, ptr noundef nonnull align 4 dereferenceable(4) %2)
  invoke fastcc void @_ZN6icu_7712_GLOBAL__N_16Parser5parseER10UErrorCode(ptr dead_on_unwind noalias writable align 8 %0, ptr noundef nonnull align 8 dereferenceable(58) %4, ptr noundef nonnull align 4 dereferenceable(4) %2)
          to label %14 unwind label %16

14:                                               ; preds = %9
  %15 = getelementptr inbounds nuw i8, ptr %4, i64 24
  call void @_ZN6icu_779BytesTrieD1Ev(ptr noundef nonnull align 8 dereferenceable(28) %15) #18
  call void @llvm.lifetime.end.p0(i64 64, ptr nonnull %4) #18
  br label %19

16:                                               ; preds = %9
  %17 = landingpad { ptr, i32 }
          cleanup
  %18 = getelementptr inbounds nuw i8, ptr %4, i64 24
  call void @_ZN6icu_779BytesTrieD1Ev(ptr noundef nonnull align 8 dereferenceable(28) %18) #18
  call void @llvm.lifetime.end.p0(i64 64, ptr nonnull %4) #18
  resume { ptr, i32 } %17

19:                                               ; preds = %14, %8
  ret void
}